target datalayout = "e-m:e-p270:32:32-p271:32:32-p272:64:64-i64:64-i128:128-f80:128-n8:16:32:64-S128"
target triple = "x86_64-pc-linux-gnu"

%struct.X11InputMethodIDs = type { ptr }
%union.jvalue = type { i64 }
%struct._X11InputMethodData = type { ptr, ptr, ptr, ptr, ptr, ptr, ptr, i32 }
%struct._X11InputMethodGRefNode = type { ptr, ptr }
%struct.JNINativeInterface_ = type { ptr, ptr, ptr, ptr, ptr, ptr, ptr, ptr, ptr, ptr, ptr, ptr, ptr, ptr, ptr, ptr, ptr, ptr, ptr, ptr, ptr, ptr, ptr, ptr, ptr, ptr, ptr, ptr, ptr, ptr, ptr, ptr, ptr, ptr, ptr, ptr, ptr, ptr, ptr, ptr, ptr, ptr, ptr, ptr, ptr, ptr, ptr, ptr, ptr, ptr, ptr, ptr, ptr, ptr, ptr, ptr, ptr, ptr, ptr, ptr, ptr, ptr, ptr, ptr, ptr, ptr, ptr, ptr, ptr, ptr, ptr, ptr, ptr, ptr, ptr, ptr, ptr, ptr, ptr, ptr, ptr, ptr, ptr, ptr, ptr, ptr, ptr, ptr, ptr, ptr, ptr, ptr, ptr, ptr, ptr, ptr, ptr, ptr, ptr, ptr, ptr, ptr, ptr, ptr, ptr, ptr, ptr, ptr, ptr, ptr, ptr, ptr, ptr, ptr, ptr, ptr, ptr, ptr, ptr, ptr, ptr, ptr, ptr, ptr, ptr, ptr, ptr, ptr, ptr, ptr, ptr, ptr, ptr, ptr, ptr, ptr, ptr, ptr, ptr, ptr, ptr, ptr, ptr, ptr, ptr, ptr, ptr, ptr, ptr, ptr, ptr, ptr, ptr, ptr, ptr, ptr, ptr, ptr, ptr, ptr, ptr, ptr, ptr, ptr, ptr, ptr, ptr, ptr, ptr, ptr, ptr, ptr, ptr, ptr, ptr, ptr, ptr, ptr, ptr, ptr, ptr, ptr, ptr, ptr, ptr, ptr, ptr, ptr, ptr, ptr, ptr, ptr, ptr, ptr, ptr, ptr, ptr, ptr, ptr, ptr, ptr, ptr, ptr, ptr, ptr, ptr, ptr, ptr, ptr, ptr, ptr, ptr, ptr, ptr, ptr, ptr, ptr, ptr, ptr, ptr, ptr, ptr, ptr, ptr, ptr, ptr, ptr, ptr, ptr, ptr, ptr, ptr, ptr, ptr, ptr }

@x11InputMethodGRefListHead = hidden global ptr null, align 8
@jvm = external global ptr, align 8
@tkClass = external global ptr, align 8
@awtLockMID = external global ptr, align 8
@awtUnlockMID = external global ptr, align 8
@x11InputMethodIDs = hidden global %struct.X11InputMethodIDs zeroinitializer, align 8
@X11im = internal global ptr null, align 8
@.str.11 = private unnamed_addr constant [10 x i8] c"flushText\00", align 1
@.str.12 = private unnamed_addr constant [4 x i8] c"()V\00", align 1

; Function Attrs: nounwind uwtable
define internal void @setX11InputMethodData(ptr noundef %0, ptr noundef %1, ptr noundef %2) #0 {
  %4 = alloca ptr, align 8
  %5 = alloca ptr, align 8
  %6 = alloca ptr, align 8
  store ptr %0, ptr %4, align 8
  store ptr %1, ptr %5, align 8
  store ptr %2, ptr %6, align 8
  %7 = load ptr, ptr %4, align 8
  %8 = load ptr, ptr %7, align 8
  %9 = getelementptr inbounds %struct.JNINativeInterface_, ptr %8, i32 0, i32 110
  %10 = load ptr, ptr %9, align 8
  %11 = load ptr, ptr %4, align 8
  %12 = load ptr, ptr %5, align 8
  %13 = load ptr, ptr @x11InputMethodIDs, align 8
  %14 = load ptr, ptr %6, align 8
  %15 = ptrtoint ptr %14 to i64
  call void %10(ptr noundef %11, ptr noundef %12, ptr noundef %13, i64 noundef %15)
  ret void
}

; Function Attrs: nounwind uwtable
define internal ptr @getX11InputMethodData(ptr noundef %0, ptr noundef %1) #0 {
  %3 = alloca ptr, align 8
  %4 = alloca ptr, align 8
  %5 = alloca ptr, align 8
  %6 = alloca ptr, align 8
  %7 = alloca %union.jvalue, align 8
  store ptr %0, ptr %4, align 8
  store ptr %1, ptr %5, align 8
  %8 = load ptr, ptr %4, align 8
  %9 = load ptr, ptr %8, align 8
  %10 = getelementptr inbounds %struct.JNINativeInterface_, ptr %9, i32 0, i32 101
  %11 = load ptr, ptr %10, align 8
  %12 = load ptr, ptr %4, align 8
  %13 = load ptr, ptr %5, align 8
  %14 = load ptr, ptr @x11InputMethodIDs, align 8
  %15 = call i64 %11(ptr noundef %12, ptr noundef %13, ptr noundef %14)
  %16 = inttoptr i64 %15 to ptr
  store ptr %16, ptr %6, align 8
  %17 = load ptr, ptr @X11im, align 8
  %18 = icmp eq ptr %17, null
  br i1 %18, label %19, label %44

19:                                               ; preds = %2
  %20 = load ptr, ptr %6, align 8
  %21 = icmp ne ptr %20, null
  br i1 %21, label %22, label %44

22:                                               ; preds = %19
  %23 = load ptr, ptr %4, align 8
  %24 = load ptr, ptr %6, align 8
  %25 = getelementptr inbounds %struct._X11InputMethodData, ptr %24, i32 0, i32 4
  %26 = load ptr, ptr %25, align 8
  %27 = call i64 (ptr, ptr, ptr, ptr, ptr, ...) @JNU_CallMethodByName(ptr noundef %23, ptr noundef null, ptr noundef %26, ptr noundef @.str.11, ptr noundef @.str.12)
  %28 = getelementptr inbounds %union.jvalue, ptr %7, i32 0, i32 0
  store i64 %27, ptr %28, align 8
  br label %29

29:                                               ; preds = %22
  %30 = load ptr, ptr %4, align 8
  %31 = load ptr, ptr %30, align 8
  %32 = getelementptr inbounds %struct.JNINativeInterface_, ptr %31, i32 0, i32 228
  %33 = load ptr, ptr %32, align 8
  %34 = load ptr, ptr %4, align 8
  %35 = call zeroext i8 %33(ptr noundef %34)
  %36 = icmp ne i8 %35, 0
  br i1 %36, label %37, label %38

37:                                               ; preds = %29
  store ptr null, ptr %3, align 8
  br label %46

38:                                               ; preds = %29
  br label %39

39:                                               ; preds = %38
  %40 = load ptr, ptr %4, align 8
  %41 = load ptr, ptr %5, align 8
  call void @setX11InputMethodData(ptr noundef %40, ptr noundef %41, ptr noundef null)
  %42 = load ptr, ptr %4, align 8
  %43 = load ptr, ptr %6, align 8
  call void @freeX11InputMethodData(ptr noundef %42, ptr noundef %43)
  store ptr null, ptr %6, align 8
  br label %44

44:                                               ; preds = %39, %19, %2
  %45 = load ptr, ptr %6, align 8
  store ptr %45, ptr %3, align 8
  br label %46

46:                                               ; preds = %44, %37
  %47 = load ptr, ptr %3, align 8
  ret ptr %47
}

; Function Attrs: nounwind uwtable
define internal void @DestroyXIMCallback(ptr noundef %0, ptr noundef %1, ptr noundef %2) #0 {
  %4 = alloca ptr, align 8
  %5 = alloca ptr, align 8
  %6 = alloca ptr, align 8
  %7 = alloca ptr, align 8
  %8 = alloca ptr, align 8
  store ptr %0, ptr %4, align 8
  store ptr %1, ptr %5, align 8
  store ptr %2, ptr %6, align 8
  store ptr null, ptr @X11im, align 8
  %9 = load ptr, ptr @jvm, align 8
  %10 = call ptr @JNU_GetEnv(ptr noundef %9, i32 noundef 65538)
  store ptr %10, ptr %7, align 8
  br label %11

11:                                               ; preds = %3
  %12 = load ptr, ptr %7, align 8
  %13 = load ptr, ptr %12, align 8
  %14 = getelementptr inbounds %struct.JNINativeInterface_, ptr %13, i32 0, i32 228
  %15 = load ptr, ptr %14, align 8
  %16 = load ptr, ptr %7, align 8
  %17 = call zeroext i8 %15(ptr noundef %16)
  %18 = icmp ne i8 %17, 0
  br i1 %18, label %19, label %25

19:                                               ; preds = %11
  %20 = load ptr, ptr %7, align 8
  %21 = load ptr, ptr %20, align 8
  %22 = getelementptr inbounds %struct.JNINativeInterface_, ptr %21, i32 0, i32 17
  %23 = load ptr, ptr %22, align 8
  %24 = load ptr, ptr %7, align 8
  call void %23(ptr noundef %24)
  br label %25

25:                                               ; preds = %19, %11
  %26 = load ptr, ptr %7, align 8
  %27 = load ptr, ptr %26, align 8
  %28 = getelementptr inbounds %struct.JNINativeInterface_, ptr %27, i32 0, i32 141
  %29 = load ptr, ptr %28, align 8
  %30 = load ptr, ptr %7, align 8
  %31 = load ptr, ptr @tkClass, align 8
  %32 = load ptr, ptr @awtLockMID, align 8
  call void (ptr, ptr, ptr, ...) %29(ptr noundef %30, ptr noundef %31, ptr noundef %32)
  %33 = load ptr, ptr %7, align 8
  %34 = load ptr, ptr %33, align 8
  %35 = getelementptr inbounds %struct.JNINativeInterface_, ptr %34, i32 0, i32 228
  %36 = load ptr, ptr %35, align 8
  %37 = load ptr, ptr %7, align 8
  %38 = call zeroext i8 %36(ptr noundef %37)
  %39 = icmp ne i8 %38, 0
  br i1 %39, label %40, label %46

40:                                               ; preds = %25
  %41 = load ptr, ptr %7, align 8
  %42 = load ptr, ptr %41, align 8
  %43 = getelementptr inbounds %struct.JNINativeInterface_, ptr %42, i32 0, i32 17
  %44 = load ptr, ptr %43, align 8
  %45 = load ptr, ptr %7, align 8
  call void %44(ptr noundef %45)
  br label %46

46:                                               ; preds = %40, %25
  br label %47

47:                                               ; preds = %46
  br label %48

48:                                               ; preds = %78, %47
  %49 = load ptr, ptr @x11InputMethodGRefListHead, align 8
  %50 = icmp ne ptr %49, null
  br i1 %50, label %51, label %79

51:                                               ; preds = %48
  %52 = load ptr, ptr %7, align 8
  %53 = load ptr, ptr @x11InputMethodGRefListHead, align 8
  %54 = getelementptr inbounds %struct._X11InputMethodGRefNode, ptr %53, i32 0, i32 0
  %55 = load ptr, ptr %54, align 8
  %56 = call ptr @getX11InputMethodData(ptr noundef %52, ptr noundef %55)
  %57 = icmp eq ptr %56, null
  br i1 %57, label %58, label %78

58:                                               ; preds = %51
  %59 = load ptr, ptr %7, align 8
  %60 = load ptr, ptr %59, align 8
  %61 = getelementptr inbounds %struct.JNINativeInterface_, ptr %60, i32 0, i32 15
  %62 = load ptr, ptr %61, align 8
  %63 = load ptr, ptr %7, align 8
  %64 = call ptr %62(ptr noundef %63)
  %65 = icmp ne ptr %64, null
  br i1 %65, label %66, label %77

66:                                               ; preds = %58
  %67 = load ptr, ptr %7, align 8
  %68 = load ptr, ptr %67, align 8
  %69 = getelementptr inbounds %struct.JNINativeInterface_, ptr %68, i32 0, i32 16
  %70 = load ptr, ptr %69, align 8
  %71 = load ptr, ptr %7, align 8
  call void %70(ptr noundef %71)
  %72 = load ptr, ptr %7, align 8
  %73 = load ptr, ptr %72, align 8
  %74 = getelementptr inbounds %struct.JNINativeInterface_, ptr %73, i32 0, i32 17
  %75 = load ptr, ptr %74, align 8
  %76 = load ptr, ptr %7, align 8
  call void %75(ptr noundef %76)
  br label %77

77:                                               ; preds = %66, %58
  br label %78

78:                                               ; preds = %77, %51
  br label %48, !llvm.loop !12

79:                                               ; preds = %48
  br label %80

80:                                               ; preds = %79
  call void (...) @awt_output_flush()
  br label %81

81:                                               ; preds = %80
  %82 = load ptr, ptr %7, align 8
  %83 = load ptr, ptr %82, align 8
  %84 = getelementptr inbounds %struct.JNINativeInterface_, ptr %83, i32 0, i32 15
  %85 = load ptr, ptr %84, align 8
  %86 = load ptr, ptr %7, align 8
  %87 = call ptr %85(ptr noundef %86)
  store ptr %87, ptr %8, align 8
  %88 = icmp ne ptr %87, null
  br i1 %88, label %89, label %95

89:                                               ; preds = %81
  %90 = load ptr, ptr %7, align 8
  %91 = load ptr, ptr %90, align 8
  %92 = getelementptr inbounds %struct.JNINativeInterface_, ptr %91, i32 0, i32 17
  %93 = load ptr, ptr %92, align 8
  %94 = load ptr, ptr %7, align 8
  call void %93(ptr noundef %94)
  br label %95

95:                                               ; preds = %89, %81
  %96 = load ptr, ptr %7, align 8
  %97 = load ptr, ptr %96, align 8
  %98 = getelementptr inbounds %struct.JNINativeInterface_, ptr %97, i32 0, i32 141
  %99 = load ptr, ptr %98, align 8
  %100 = load ptr, ptr %7, align 8
  %101 = load ptr, ptr @tkClass, align 8
  %102 = load ptr, ptr @awtUnlockMID, align 8
  call void (ptr, ptr, ptr, ...) %99(ptr noundef %100, ptr noundef %101, ptr noundef %102)
  %103 = load ptr, ptr %7, align 8
  %104 = load ptr, ptr %103, align 8
  %105 = getelementptr inbounds %struct.JNINativeInterface_, ptr %104, i32 0, i32 228
  %106 = load ptr, ptr %105, align 8
  %107 = load ptr, ptr %7, align 8
  %108 = call zeroext i8 %106(ptr noundef %107)
  %109 = icmp ne i8 %108, 0
  br i1 %109, label %110, label %116

110:                                              ; preds = %95
  %111 = load ptr, ptr %7, align 8
  %112 = load ptr, ptr %111, align 8
  %113 = getelementptr inbounds %struct.JNINativeInterface_, ptr %112, i32 0, i32 17
  %114 = load ptr, ptr %113, align 8
  %115 = load ptr, ptr %7, align 8
  call void %114(ptr noundef %115)
  br label %116

116:                                              ; preds = %110, %95
  %117 = load ptr, ptr %8, align 8
  %118 = icmp ne ptr %117, null
  br i1 %118, label %119, label %127

119:                                              ; preds = %116
  %120 = load ptr, ptr %7, align 8
  %121 = load ptr, ptr %120, align 8
  %122 = getelementptr inbounds %struct.JNINativeInterface_, ptr %121, i32 0, i32 13
  %123 = load ptr, ptr %122, align 8
  %124 = load ptr, ptr %7, align 8
  %125 = load ptr, ptr %8, align 8
  %126 = call i32 %123(ptr noundef %124, ptr noundef %125)
  br label %127

127:                                              ; preds = %119, %116
  br label %128

128:                                              ; preds = %127
  br label %129

129:                                              ; preds = %128
  ret void
}