; Function Attrs: nounwind uwtable
define internal void @DestroyXIMCallback(ptr nocapture readnone %0, ptr nocapture readnone %1, ptr nocapture readnone %2) #2 {
  store ptr null, ptr @X11im, align 8
  %4 = load ptr, ptr @jvm, align 8
  %5 = tail call ptr @JNU_GetEnv(ptr noundef %4, i32 noundef 65538) #14
  %6 = load ptr, ptr %5, align 8
  %7 = getelementptr inbounds i8, ptr %6, i64 1824
  %8 = load ptr, ptr %7, align 8
  %9 = tail call zeroext i8 %8(ptr noundef nonnull %5) #14
  %.not = icmp eq i8 %9, 0
  br i1 %.not, label %14, label %10

10:                                               ; preds = %3
  %11 = load ptr, ptr %5, align 8
  %12 = getelementptr inbounds i8, ptr %11, i64 136
  %13 = load ptr, ptr %12, align 8
  tail call void %13(ptr noundef nonnull %5) #14
  br label %14

14:                                               ; preds = %10, %3
  %15 = load ptr, ptr %5, align 8
  %16 = getelementptr inbounds i8, ptr %15, i64 1128
  %17 = load ptr, ptr %16, align 8
  %18 = load ptr, ptr @tkClass, align 8
  %19 = load ptr, ptr @awtLockMID, align 8
  tail call void (ptr, ptr, ptr, ...) %17(ptr noundef nonnull %5, ptr noundef %18, ptr noundef %19) #14
  %20 = load ptr, ptr %5, align 8
  %21 = getelementptr inbounds i8, ptr %20, i64 1824
  %22 = load ptr, ptr %21, align 8
  %23 = tail call zeroext i8 %22(ptr noundef nonnull %5) #14
  %.not32 = icmp eq i8 %23, 0
  br i1 %.not32, label %28, label %24

24:                                               ; preds = %14
  %25 = load ptr, ptr %5, align 8
  %26 = getelementptr inbounds i8, ptr %25, i64 136
  %27 = load ptr, ptr %26, align 8
  tail call void %27(ptr noundef nonnull %5) #14
  br label %28

28:                                               ; preds = %14, %24
  %29 = load ptr, ptr @x11InputMethodGRefListHead, align 8
  %.not3338 = icmp eq ptr %29, null
  br i1 %.not3338, label %._crit_edge, label %.lr.ph

.lr.ph:                                           ; preds = %28, %66
  %30 = phi ptr [ %67, %66 ], [ %29, %28 ]
  %31 = load ptr, ptr %30, align 8
  %32 = load ptr, ptr %5, align 8
  %33 = getelementptr inbounds i8, ptr %32, i64 808
  %34 = load ptr, ptr %33, align 8
  %35 = load ptr, ptr @x11InputMethodIDs, align 8
  %36 = tail call i64 %34(ptr noundef nonnull %5, ptr noundef %31, ptr noundef %35) #14
  %37 = inttoptr i64 %36 to ptr
  %38 = load ptr, ptr @X11im, align 8
  %39 = icmp eq ptr %38, null
  %40 = icmp ne i64 %36, 0
  %or.cond.i = select i1 %39, i1 %40, i1 false
  br i1 %or.cond.i, label %41, label %getX11InputMethodData.exit

41:                                               ; preds = %.lr.ph
  %42 = getelementptr inbounds i8, ptr %37, i64 32
  %43 = load ptr, ptr %42, align 8
  %44 = tail call i64 (ptr, ptr, ptr, ptr, ptr, ...) @JNU_CallMethodByName(ptr noundef nonnull %5, ptr noundef null, ptr noundef %43, ptr noundef nonnull @.str.11, ptr noundef nonnull @.str.12) #14
  %45 = load ptr, ptr %5, align 8
  %46 = getelementptr inbounds i8, ptr %45, i64 1824
  %47 = load ptr, ptr %46, align 8
  %48 = tail call zeroext i8 %47(ptr noundef nonnull %5) #14
  %.not.i = icmp eq i8 %48, 0
  br i1 %.not.i, label %49, label %getX11InputMethodData.exit.thread

49:                                               ; preds = %41
  %50 = load ptr, ptr %5, align 8
  %51 = getelementptr inbounds i8, ptr %50, i64 880
  %52 = load ptr, ptr %51, align 8
  %53 = load ptr, ptr @x11InputMethodIDs, align 8
  tail call void %52(ptr noundef nonnull %5, ptr noundef %31, ptr noundef %53, i64 noundef 0) #14
  tail call fastcc void @freeX11InputMethodData(ptr noundef nonnull %5, ptr noundef nonnull %37)
  br label %getX11InputMethodData.exit.thread

getX11InputMethodData.exit:                       ; preds = %.lr.ph
  %54 = icmp eq i64 %36, 0
  br i1 %54, label %getX11InputMethodData.exit.thread, label %66

getX11InputMethodData.exit.thread:                ; preds = %49, %41, %getX11InputMethodData.exit
  %55 = load ptr, ptr %5, align 8
  %56 = getelementptr inbounds i8, ptr %55, i64 120
  %57 = load ptr, ptr %56, align 8
  %58 = tail call ptr %57(ptr noundef nonnull %5) #14
  %.not36 = icmp eq ptr %58, null
  br i1 %.not36, label %66, label %59

59:                                               ; preds = %getX11InputMethodData.exit.thread
  %60 = load ptr, ptr %5, align 8
  %61 = getelementptr inbounds i8, ptr %60, i64 128
  %62 = load ptr, ptr %61, align 8
  tail call void %62(ptr noundef nonnull %5) #14
  %63 = load ptr, ptr %5, align 8
  %64 = getelementptr inbounds i8, ptr %63, i64 136
  %65 = load ptr, ptr %64, align 8
  tail call void %65(ptr noundef nonnull %5) #14
  br label %66

66:                                               ; preds = %getX11InputMethodData.exit.thread, %59, %getX11InputMethodData.exit
  %67 = load ptr, ptr @x11InputMethodGRefListHead, align 8
  %.not33 = icmp eq ptr %67, null
  br i1 %.not33, label %._crit_edge, label %.lr.ph, !llvm.loop !13

._crit_edge:                                      ; preds = %66, %28
  tail call void (...) @awt_output_flush() #14
  %68 = load ptr, ptr %5, align 8
  %69 = getelementptr inbounds i8, ptr %68, i64 120
  %70 = load ptr, ptr %69, align 8
  %71 = tail call ptr %70(ptr noundef nonnull %5) #14
  %.not34 = icmp eq ptr %71, null
  br i1 %.not34, label %76, label %72

72:                                               ; preds = %._crit_edge
  %73 = load ptr, ptr %5, align 8
  %74 = getelementptr inbounds i8, ptr %73, i64 136
  %75 = load ptr, ptr %74, align 8
  tail call void %75(ptr noundef nonnull %5) #14
  br label %76

76:                                               ; preds = %72, %._crit_edge
  %77 = load ptr, ptr %5, align 8
  %78 = getelementptr inbounds i8, ptr %77, i64 1128
  %79 = load ptr, ptr %78, align 8
  %80 = load ptr, ptr @tkClass, align 8
  %81 = load ptr, ptr @awtUnlockMID, align 8
  tail call void (ptr, ptr, ptr, ...) %79(ptr noundef nonnull %5, ptr noundef %80, ptr noundef %81) #14
  %82 = load ptr, ptr %5, align 8
  %83 = getelementptr inbounds i8, ptr %82, i64 1824
  %84 = load ptr, ptr %83, align 8
  %85 = tail call zeroext i8 %84(ptr noundef nonnull %5) #14
  %.not35 = icmp eq i8 %85, 0
  br i1 %.not35, label %90, label %86

86:                                               ; preds = %76
  %87 = load ptr, ptr %5, align 8
  %88 = getelementptr inbounds i8, ptr %87, i64 136
  %89 = load ptr, ptr %88, align 8
  tail call void %89(ptr noundef nonnull %5) #14
  br label %90

90:                                               ; preds = %86, %76
  br i1 %.not34, label %96, label %91

91:                                               ; preds = %90
  %92 = load ptr, ptr %5, align 8
  %93 = getelementptr inbounds i8, ptr %92, i64 104
  %94 = load ptr, ptr %93, align 8
  %95 = tail call i32 %94(ptr noundef nonnull %5, ptr noundef nonnull %71) #14
  br label %96

96:                                               ; preds = %91, %90
  ret void
}